target datalayout = "e-m:e-p270:32:32-p271:32:32-p272:64:64-i64:64-i128:128-f80:128-n8:16:32:64-S128"
target triple = "x86_64-pc-linux-gnu"

%struct.crypto_ex_data_st = type { ptr, ptr }
%struct.x509_store_ctx_st = type { ptr, ptr, ptr, ptr, ptr, ptr, ptr, ptr, ptr, ptr, ptr, ptr, ptr, ptr, ptr, ptr, ptr, ptr, i32, i32, ptr, ptr, i32, i32, i32, ptr, ptr, ptr, i32, i32, ptr, %struct.crypto_ex_data_st, ptr, i32, ptr, ptr, ptr }

@.str = private unnamed_addr constant [34 x i8] c"../openssl/crypto/x509/x509_vfy.c\00", align 1
@__func__.X509_STORE_CTX_set_default = private unnamed_addr constant [27 x i8] c"X509_STORE_CTX_set_default\00", align 1
@.str.2 = private unnamed_addr constant [8 x i8] c"name=%s\00", align 1

; Function Attrs: nounwind uwtable
define i32 @X509_STORE_CTX_set_default(ptr noundef %0, ptr noundef %1) #0 {
  %3 = alloca i32, align 4
  %4 = alloca ptr, align 8
  %5 = alloca ptr, align 8
  %6 = alloca ptr, align 8
  %7 = alloca i32, align 4
  store ptr %0, ptr %4, align 8, !tbaa !40
  store ptr %1, ptr %5, align 8, !tbaa !127
  call void @llvm.lifetime.start.p0(i64 8, ptr %6) #8
  %8 = load ptr, ptr %5, align 8, !tbaa !127
  %9 = call ptr @X509_VERIFY_PARAM_lookup(ptr noundef %8)
  store ptr %9, ptr %6, align 8, !tbaa !90
  %10 = load ptr, ptr %6, align 8, !tbaa !90
  %11 = icmp eq ptr %10, null
  br i1 %11, label %12, label %14

12:                                               ; preds = %2
  call void @ERR_new()
  call void @ERR_set_debug(ptr noundef @.str, i32 noundef 2822, ptr noundef @__func__.X509_STORE_CTX_set_default)
  %13 = load ptr, ptr %5, align 8, !tbaa !127
  call void (i32, i32, ptr, ...) @ERR_set_error(i32 noundef 11, i32 noundef 121, ptr noundef @.str.2, ptr noundef %13)
  store i32 0, ptr %3, align 4
  store i32 1, ptr %7, align 4
  br label %20

14:                                               ; preds = %2
  %15 = load ptr, ptr %4, align 8, !tbaa !40
  %16 = getelementptr inbounds nuw %struct.x509_store_ctx_st, ptr %15, i32 0, i32 4
  %17 = load ptr, ptr %16, align 8, !tbaa !72
  %18 = load ptr, ptr %6, align 8, !tbaa !90
  %19 = call i32 @X509_VERIFY_PARAM_inherit(ptr noundef %17, ptr noundef %18)
  store i32 %19, ptr %3, align 4
  store i32 1, ptr %7, align 4
  br label %20

20:                                               ; preds = %14, %12
  call void @llvm.lifetime.end.p0(i64 8, ptr %6) #8
  %21 = load i32, ptr %3, align 4
  ret i32 %21
}