; Function Attrs: nounwind uwtable
define i32 @X509_STORE_CTX_set_default(ptr noundef readonly captures(none) %0, ptr noundef %1) local_unnamed_addr #0 {
  %3 = tail call ptr @X509_VERIFY_PARAM_lookup(ptr noundef %1) #10
  %4 = icmp eq ptr %3, null
  br i1 %4, label %5, label %6

5:                                                ; preds = %2
  tail call void @ERR_new() #10
  tail call void @ERR_set_debug(ptr noundef nonnull @.str, i32 noundef 2822, ptr noundef nonnull @__func__.X509_STORE_CTX_set_default) #10
  tail call void (i32, i32, ptr, ...) @ERR_set_error(i32 noundef 11, i32 noundef 121, ptr noundef nonnull @.str.2, ptr noundef %1) #10
  br label %10

6:                                                ; preds = %2
  %7 = getelementptr inbounds nuw i8, ptr %0, i64 32
  %8 = load ptr, ptr %7, align 8, !tbaa !49
  %9 = tail call i32 @X509_VERIFY_PARAM_inherit(ptr noundef %8, ptr noundef nonnull %3) #10
  br label %10

10:                                               ; preds = %6, %5
  %.0 = phi i32 [ 0, %5 ], [ %9, %6 ]
  ret i32 %.0
}